; Function Attrs: mustprogress uwtable
define hidden noundef zeroext i1 @_ZNK7datalog7context16array_blast_fullEv(ptr nocapture noundef nonnull readonly align 8 dereferenceable(3556) %this) local_unnamed_addr #3 align 2 {
entry:
  %m_params = getelementptr inbounds i8, ptr %this, i64 32
  %0 = load ptr, ptr %m_params, align 8
  %1 = load ptr, ptr %0, align 8
  %g.i = getelementptr inbounds i8, ptr %0, i64 8
  %call.i = tail call noundef zeroext i1 @_ZNK10params_ref8get_boolEPKcRKS_b(ptr noundef nonnull align 8 dereferenceable(8) %1, ptr noundef nonnull @.str.79, ptr noundef nonnull align 8 dereferenceable(8) %g.i, i1 noundef zeroext false)
  ret i1 %call.i
}